target datalayout = "e-m:e-p270:32:32-p271:32:32-p272:64:64-i64:64-i128:128-f80:128-n8:16:32:64-S128"
target triple = "x86_64-unknown-linux-gnu"

%"class.icu_75::UObject" = type { ptr }
%"struct.(anonymous namespace)::KeywordsSink" = type <{ %"class.icu_75::ResourceSink", ptr, i8, [7 x i8] }>
%"class.icu_75::ResourceSink" = type { %"class.icu_75::UObject" }

; Function Attrs: mustprogress nounwind uwtable
define internal void @_ZN12_GLOBAL__N_112KeywordsSinkD2Ev(ptr noundef nonnull align 8 dereferenceable(17) %this) unnamed_addr #0 align 2 personality ptr @__gxx_personality_v0 {
entry:
  %this.addr = alloca ptr, align 8
  store ptr %this, ptr %this.addr, align 8
  %this1 = load ptr, ptr %this.addr, align 8
  store ptr getelementptr inbounds ({ [6 x ptr] }, ptr @_ZTVN12_GLOBAL__N_112KeywordsSinkE, i32 0, i32 0, i32 2), ptr %this1, align 8
  %values = getelementptr inbounds %"struct.(anonymous namespace)::KeywordsSink", ptr %this1, i32 0, i32 1
  %0 = load ptr, ptr %values, align 8
  invoke void @ulist_deleteList_75(ptr noundef %0)
          to label %invoke.cont unwind label %terminate.lpad

invoke.cont:                                      ; preds = %entry
  call void @_ZN6icu_7512ResourceSinkD2Ev(ptr noundef nonnull align 8 dereferenceable(8) %this1) #9
  ret void

terminate.lpad:                                   ; preds = %entry
  %1 = landingpad { ptr, i32 }
          catch ptr null
  %2 = extractvalue { ptr, i32 } %1, 0
  call void @__clang_call_terminate(ptr %2) #11
  unreachable
}

; Function Attrs: mustprogress nounwind uwtable
define internal void @_ZN12_GLOBAL__N_112KeywordsSinkD0Ev(ptr noundef nonnull align 8 dereferenceable(17) %this) unnamed_addr #0 align 2 {
entry:
  %this.addr = alloca ptr, align 8
  store ptr %this, ptr %this.addr, align 8
  %this1 = load ptr, ptr %this.addr, align 8
  call void @_ZN12_GLOBAL__N_112KeywordsSinkD2Ev(ptr noundef nonnull align 8 dereferenceable(17) %this1) #9
  call void @_ZN6icu_757UMemorydlEPv(ptr noundef %this1) #9
  ret void
}