; Function Attrs: mustprogress nounwind uwtable
define internal void @_ZN12_GLOBAL__N_112KeywordsSinkD0Ev(ptr noundef nonnull align 8 dereferenceable(17) %this) unnamed_addr #0 align 2 personality ptr @__gxx_personality_v0 {
entry:
  store ptr getelementptr inbounds ({ [6 x ptr] }, ptr @_ZTVN12_GLOBAL__N_112KeywordsSinkE, i64 0, i32 0, i64 2), ptr %this, align 8
  %values.i = getelementptr inbounds i8, ptr %this, i64 8
  %0 = load ptr, ptr %values.i, align 8
  invoke void @ulist_deleteList_75(ptr noundef %0)
          to label %_ZN12_GLOBAL__N_112KeywordsSinkD2Ev.exit unwind label %terminate.lpad.i

terminate.lpad.i:                                 ; preds = %entry
  %1 = landingpad { ptr, i32 }
          catch ptr null
  %2 = extractvalue { ptr, i32 } %1, 0
  tail call void @__clang_call_terminate(ptr %2) #15
  unreachable

_ZN12_GLOBAL__N_112KeywordsSinkD2Ev.exit:         ; preds = %entry
  tail call void @_ZN6icu_7512ResourceSinkD2Ev(ptr noundef nonnull align 8 dereferenceable(8) %this) #13
  tail call void @_ZN6icu_757UMemorydlEPv(ptr noundef nonnull %this) #13
  ret void
}